MODULE Linux arm DB2578A382E9C75251E305EA883E81EB0 libnative.so
INFO CODE_ID A37825DBE98252C751E305EA883E81EB
FUNC 2028 c0 0 Java_com_readdle_sample_crashlytics_generatesymbolssample_MainActivity_doCrash
FUNC 2bb8 44 0 __fixdfdi
FUNC 2bfc 68 0 __fixunsdfdi
FUNC 2c64 3c 0 __gnu_ldivmod_helper
FUNC 2ca0 3c 0 __gnu_uldivmod_helper
FUNC 2cdc 18 0 selfrel_offset31
FUNC 2cf4 a4 0 search_EIT_table
FUNC 2d98 50 0 __gnu_unwind_get_pr_addr
FUNC 2de8 100 0 get_eit_entry
FUNC 2ee8 6c 0 restore_non_core_regs
FUNC 2f54 14 0 _Unwind_decode_typeinfo_ptr
FUNC 2f68 8 0 __gnu_unwind_24bit
FUNC 2f70 4 0 _Unwind_DebugHook
FUNC 2f74 64 0 unwind_phase2
FUNC 2fd8 128 0 unwind_phase2_forced
FUNC 3100 8 0 _Unwind_GetCFA
FUNC 3108 a4 0 __gnu_Unwind_RaiseException
FUNC 31ac 1c 0 __gnu_Unwind_ForcedUnwind
FUNC 31c8 74 0 __gnu_Unwind_Resume
FUNC 323c 20 0 __gnu_Unwind_Resume_or_Rethrow
FUNC 325c 4 0 _Unwind_Complete
FUNC 3260 18 0 _Unwind_DeleteException
FUNC 3278 5c 0 _Unwind_VRS_Get
FUNC 32d4 28 0 _Unwind_GetGR
FUNC 32fc 5c 0 _Unwind_VRS_Set
FUNC 3358 2c 0 _Unwind_SetGR
FUNC 3384 c8 0 __gnu_Unwind_Backtrace
FUNC 344c 3ec 0 __gnu_unwind_pr_common
FUNC 3838 8 0 __aeabi_unwind_cpp_pr0
FUNC 3840 8 0 __aeabi_unwind_cpp_pr1
FUNC 3848 8 0 __aeabi_unwind_cpp_pr2
FUNC 3850 360 0 _Unwind_VRS_Pop
FUNC 3d58 60 0 next_unwind_byte
FUNC 3db8 28 0 _Unwind_GetGR
FUNC 3de0 4 0 unwind_UCB_from_context
FUNC 3de4 398 0 __gnu_unwind_execute
FUNC 417c 40 0 __gnu_unwind_frame
FUNC 41bc 10 0 _Unwind_GetRegionStart
FUNC 41cc 1c 0 _Unwind_GetLanguageSpecificData
FUNC 41e8 8 0 _Unwind_GetDataRelBase
FUNC 41f0 8 0 _Unwind_GetTextRelBase
FUNC 41f8 18 0 __gthread_active_p
FUNC 4210 4 0 __gthread_getspecific
FUNC 4214 4 0 __gthread_setspecific
FUNC 4218 44 0 emutls_destroy
FUNC 425c 84 0 emutls_alloc
FUNC 42e0 24 0 __gthread_mutex_unlock
FUNC 4304 24 0 __gthread_mutex_lock
FUNC 4328 20 0 __gthread_key_create
FUNC 4348 14 0 emutls_init
FUNC 435c 3c 0 __gthread_once
FUNC 4398 13c 0 __emutls_get_address
FUNC 44d4 38 0 __emutls_register_common
FUNC 4638 17c 0 __divdi3
FUNC 47b4 10c 0 __udivdi3
PUBLIC 1f5c 0 __on_dlclose
PUBLIC 1f6c 0 __atexit_handler_wrapper
PUBLIC 1f78 0 atexit
PUBLIC 1f98 0 sectionDataInit()
PUBLIC 1fa8 0 _T0SqWy
PUBLIC 1fd4 0 swift_rt_swift_retain
PUBLIC 1fe8 0 _T0SqWe
PUBLIC 2014 0 swift_rt_swift_release
PUBLIC 2028 0 Java_com_readdle_sample_crashlytics_generatesymbolssample_MainActivity_doCrash
PUBLIC 20e8 0 __aeabi_uidiv
PUBLIC 2190 0 __aeabi_uidivmod
PUBLIC 21b0 0 __aeabi_idiv
PUBLIC 228c 0 __aeabi_idivmod
PUBLIC 22ac 0 __aeabi_drsub
PUBLIC 22b4 0 __aeabi_dsub
PUBLIC 22b8 0 __adddf3
PUBLIC 2564 0 __aeabi_ui2d
PUBLIC 2588 0 __floatsidf
PUBLIC 25b0 0 __aeabi_f2d
PUBLIC 25f0 0 __aeabi_ul2d
PUBLIC 2604 0 __aeabi_l2d
PUBLIC 2664 0 __aeabi_dmul
PUBLIC 28d0 0 __divdf3
PUBLIC 2ad4 0 __aeabi_d2uiz
PUBLIC 2b28 0 __aeabi_ldivmod
PUBLIC 2b6c 0 __aeabi_uldivmod
PUBLIC 2ba8 0 __aeabi_idiv0
PUBLIC 2bb8 0 __aeabi_d2lz
PUBLIC 2bfc 0 __aeabi_d2ulz
PUBLIC 2c64 0 __gnu_ldivmod_helper
PUBLIC 2ca0 0 __gnu_uldivmod_helper
PUBLIC 2cdc 0 selfrel_offset31
PUBLIC 2cf4 0 search_EIT_table
PUBLIC 2d98 0 __gnu_unwind_get_pr_addr
PUBLIC 2de8 0 get_eit_entry
PUBLIC 2ee8 0 restore_non_core_regs
PUBLIC 2f54 0 _Unwind_decode_typeinfo_ptr.isra.0
PUBLIC 2f68 0 __gnu_unwind_24bit.isra.1
PUBLIC 2f70 0 _Unwind_DebugHook
PUBLIC 2f74 0 unwind_phase2
PUBLIC 2fd8 0 unwind_phase2_forced
PUBLIC 3100 0 _Unwind_GetCFA
PUBLIC 3108 0 __gnu_Unwind_RaiseException
PUBLIC 31ac 0 __gnu_Unwind_ForcedUnwind
PUBLIC 31c8 0 __gnu_Unwind_Resume
PUBLIC 323c 0 __gnu_Unwind_Resume_or_Rethrow
PUBLIC 325c 0 _Unwind_Complete
PUBLIC 3260 0 _Unwind_DeleteException
PUBLIC 3278 0 _Unwind_VRS_Get
PUBLIC 32d4 0 _Unwind_GetGR
PUBLIC 32fc 0 _Unwind_VRS_Set
PUBLIC 3358 0 _Unwind_SetGR
PUBLIC 3384 0 __gnu_Unwind_Backtrace
PUBLIC 344c 0 __gnu_unwind_pr_common
PUBLIC 3838 0 __aeabi_unwind_cpp_pr0
PUBLIC 3840 0 __aeabi_unwind_cpp_pr1
PUBLIC 3848 0 __aeabi_unwind_cpp_pr2
PUBLIC 3850 0 _Unwind_VRS_Pop
PUBLIC 3bb0 0 restore_core_regs
PUBLIC 3bc4 0 __gnu_Unwind_Restore_VFP
PUBLIC 3bcc 0 __gnu_Unwind_Save_VFP
PUBLIC 3bd4 0 __gnu_Unwind_Restore_VFP_D
PUBLIC 3bdc 0 __gnu_Unwind_Save_VFP_D
PUBLIC 3be4 0 __gnu_Unwind_Restore_VFP_D_16_to_31
PUBLIC 3bec 0 __gnu_Unwind_Save_VFP_D_16_to_31
PUBLIC 3bf4 0 __gnu_Unwind_Restore_WMMXD
PUBLIC 3c38 0 __gnu_Unwind_Save_WMMXD
PUBLIC 3c7c 0 __gnu_Unwind_Restore_WMMXC
PUBLIC 3c90 0 __gnu_Unwind_Save_WMMXC
PUBLIC 3ca4 0 ___Unwind_RaiseException
PUBLIC 3cc8 0 ___Unwind_Resume
PUBLIC 3cec 0 ___Unwind_Resume_or_Rethrow
PUBLIC 3d10 0 ___Unwind_ForcedUnwind
PUBLIC 3d34 0 ___Unwind_Backtrace
PUBLIC 3d58 0 next_unwind_byte
PUBLIC 3db8 0 _Unwind_GetGR.constprop.0
PUBLIC 3de0 0 unwind_UCB_from_context
PUBLIC 3de4 0 __gnu_unwind_execute
PUBLIC 417c 0 __gnu_unwind_frame
PUBLIC 41bc 0 _Unwind_GetRegionStart
PUBLIC 41cc 0 _Unwind_GetLanguageSpecificData
PUBLIC 41e8 0 _Unwind_GetDataRelBase
PUBLIC 41f0 0 _Unwind_GetTextRelBase
PUBLIC 41f8 0 __gthread_active_p
PUBLIC 4210 0 __gthread_getspecific
PUBLIC 4214 0 __gthread_setspecific
PUBLIC 4218 0 emutls_destroy
PUBLIC 425c 0 emutls_alloc
PUBLIC 42e0 0 __gthread_mutex_unlock.constprop.0
PUBLIC 4304 0 __gthread_mutex_lock.constprop.1
PUBLIC 4328 0 __gthread_key_create.constprop.2
PUBLIC 4348 0 emutls_init
PUBLIC 435c 0 __gthread_once.constprop.3
PUBLIC 4398 0 __emutls_get_address
PUBLIC 44d4 0 __emutls_register_common
PUBLIC 450c 0 __gtdf2
PUBLIC 4514 0 __ltdf2
PUBLIC 451c 0 __cmpdf2
PUBLIC 45a4 0 __aeabi_cdrcmple
PUBLIC 45c0 0 __aeabi_cdcmpeq
PUBLIC 45d4 0 __aeabi_dcmpeq
PUBLIC 45e8 0 __aeabi_dcmplt
PUBLIC 45fc 0 __aeabi_dcmple
PUBLIC 4610 0 __aeabi_dcmpge
PUBLIC 4624 0 __aeabi_dcmpgt
PUBLIC 4638 0 __divdi3
PUBLIC 47b4 0 __udivdi3
PUBLIC 48c0 0 __aeabi_llsr
PUBLIC 48dc 0 __aeabi_llsl
STACK CFI INIT 20e8 a8 .cfa: sp 0 + .ra: lr
STACK CFI INIT 21b0 dc .cfa: sp 0 + .ra: lr
STACK CFI INIT 2b28 44 .cfa: sp 0 + .ra: lr
STACK CFI 2b58 .cfa: sp 16 + .ra: .cfa -12 + ^
STACK CFI INIT 2b6c 3c .cfa: sp 0 + .ra: lr
STACK CFI 2b94 .cfa: sp 16 + .ra: .cfa -12 + ^
STACK CFI INIT 2bb8 44 .cfa: sp 0 + .ra: lr
STACK CFI 2bbc .cfa: sp 16 + .ra: .cfa -4 + ^ r3: .cfa -16 + ^ r4: .cfa -12 + ^ r5: .cfa -8 + ^
STACK CFI 2be4 .cfa: sp 0 + .ra: .ra r3: r3 r4: r4 r5: r5
STACK CFI 2be8 .cfa: sp 16 + .ra: .cfa -4 + ^ r3: .cfa -16 + ^ r4: .cfa -12 + ^ r5: .cfa -8 + ^
STACK CFI INIT 2bfc 68 .cfa: sp 0 + .ra: lr
STACK CFI 2c00 .cfa: sp 16 + .ra: .cfa -4 + ^ r4: .cfa -16 + ^ r6: .cfa -12 + ^ r7: .cfa -8 + ^
STACK CFI INIT 2c64 3c .cfa: sp 0 + .ra: lr
STACK CFI 2c68 .cfa: sp 24 + .ra: .cfa -4 + ^ r3: .cfa -24 + ^ r4: .cfa -20 + ^ r5: .cfa -16 + ^ r6: .cfa -12 + ^ r7: .cfa -8 + ^
STACK CFI INIT 2ca0 3c .cfa: sp 0 + .ra: lr
STACK CFI 2ca4 .cfa: sp 24 + .ra: .cfa -4 + ^ r3: .cfa -24 + ^ r4: .cfa -20 + ^ r5: .cfa -16 + ^ r6: .cfa -12 + ^ r7: .cfa -8 + ^
STACK CFI INIT 2cdc 18 .cfa: sp 0 + .ra: lr
STACK CFI INIT 2cf4 a4 .cfa: sp 0 + .ra: lr
STACK CFI 2cf8 .cfa: sp 48 + .ra: .cfa -4 + ^ r10: .cfa -12 + ^ r11: .cfa -8 + ^ r4: .cfa -36 + ^ r5: .cfa -32 + ^ r6: .cfa -28 + ^ r7: .cfa -24 + ^ r8: .cfa -20 + ^ r9: .cfa -16 + ^
STACK CFI 2d94 .cfa: sp 36 +
STACK CFI INIT 2d98 50 .cfa: sp 0 + .ra: lr
STACK CFI INIT 2de8 100 .cfa: sp 0 + .ra: lr
STACK CFI 2df0 .cfa: sp 24 + .ra: .cfa -4 + ^ r4: .cfa -12 + ^ r5: .cfa -8 + ^
STACK CFI 2ed8 .cfa: sp 12 +
STACK CFI INIT 2ee8 6c .cfa: sp 0 + .ra: lr
STACK CFI 2ef0 .cfa: sp 8 + .ra: .cfa -4 + ^ r4: .cfa -8 + ^
STACK CFI 2f50 .cfa: sp 0 + .ra: .ra r4: r4
STACK CFI INIT 2f54 14 .cfa: sp 0 + .ra: lr
STACK CFI INIT 2f68 8 .cfa: sp 0 + .ra: lr
STACK CFI INIT 2f70 4 .cfa: sp 0 + .ra: lr
STACK CFI INIT 2f74 64 .cfa: sp 0 + .ra: lr
STACK CFI 2f78 .cfa: sp 16 + .ra: .cfa -4 + ^ r4: .cfa -16 + ^ r5: .cfa -12 + ^ r6: .cfa -8 + ^
STACK CFI INIT 2fd8 128 .cfa: sp 0 + .ra: lr
STACK CFI 2fdc .cfa: sp 36 + .ra: .cfa -4 + ^ r10: .cfa -12 + ^ r11: .cfa -8 + ^ r4: .cfa -36 + ^ r5: .cfa -32 + ^ r6: .cfa -28 + ^ r7: .cfa -24 + ^ r8: .cfa -20 + ^ r9: .cfa -16 + ^
STACK CFI 2ff8 .cfa: sp 1008 +
STACK CFI 30fc .cfa: sp 36 +
STACK CFI INIT 3100 8 .cfa: sp 0 + .ra: lr
STACK CFI INIT 3108 a4 .cfa: sp 0 + .ra: lr
STACK CFI 3110 .cfa: sp 20 + .ra: .cfa -4 + ^ r4: .cfa -20 + ^ r5: .cfa -16 + ^ r6: .cfa -12 + ^ r7: .cfa -8 + ^
STACK CFI 3124 .cfa: sp 504 +
STACK CFI 31a8 .cfa: sp 20 +
STACK CFI INIT 31ac 1c .cfa: sp 0 + .ra: lr
STACK CFI INIT 31c8 74 .cfa: sp 0 + .ra: lr
STACK CFI 31cc .cfa: sp 16 + .ra: .cfa -4 + ^ r4: .cfa -16 + ^ r5: .cfa -12 + ^ r6: .cfa -8 + ^
STACK CFI INIT 323c 20 .cfa: sp 0 + .ra: lr
STACK CFI INIT 325c 4 .cfa: sp 0 + .ra: lr
STACK CFI INIT 3260 18 .cfa: sp 0 + .ra: lr
STACK CFI INIT 3278 5c .cfa: sp 0 + .ra: lr
STACK CFI INIT 32d4 28 .cfa: sp 0 + .ra: lr
STACK CFI 32d8 .cfa: sp 24 + .ra: .cfa -4 + ^
STACK CFI 32f8 .cfa: sp 4 +
STACK CFI INIT 32fc 5c .cfa: sp 0 + .ra: lr
STACK CFI INIT 3358 2c .cfa: sp 0 + .ra: lr
STACK CFI 335c .cfa: sp 24 + .ra: .cfa -4 + ^
STACK CFI 3380 .cfa: sp 4 +
STACK CFI INIT 3384 c8 .cfa: sp 0 + .ra: lr
STACK CFI 3390 .cfa: sp 24 + .ra: .cfa -4 + ^ r4: .cfa -24 + ^ r5: .cfa -20 + ^ r6: .cfa -16 + ^ r7: .cfa -12 + ^ r8: .cfa -8 + ^
STACK CFI 33a4 .cfa: sp 592 +
STACK CFI 3448 .cfa: sp 24 +
STACK CFI INIT 344c 3ec .cfa: sp 0 + .ra: lr
STACK CFI 3450 .cfa: sp 36 + .ra: .cfa -4 + ^ r10: .cfa -12 + ^ r11: .cfa -8 + ^ r4: .cfa -36 + ^ r5: .cfa -32 + ^ r6: .cfa -28 + ^ r7: .cfa -24 + ^ r8: .cfa -20 + ^ r9: .cfa -16 + ^
STACK CFI 345c .cfa: sp 72 +
STACK CFI 3830 .cfa: sp 36 +
STACK CFI INIT 3838 8 .cfa: sp 0 + .ra: lr
STACK CFI INIT 3840 8 .cfa: sp 0 + .ra: lr
STACK CFI INIT 3848 8 .cfa: sp 0 + .ra: lr
STACK CFI INIT 3850 360 .cfa: sp 0 + .ra: lr
STACK CFI 3854 .cfa: sp 28 + .ra: .cfa -4 + ^ r4: .cfa -28 + ^ r5: .cfa -24 + ^ r6: .cfa -20 + ^ r7: .cfa -16 + ^ r8: .cfa -12 + ^ r9: .cfa -8 + ^
STACK CFI 385c .cfa: sp 296 +
STACK CFI 3bac .cfa: sp 28 +
STACK CFI INIT 3d58 60 .cfa: sp 0 + .ra: lr
STACK CFI INIT 3db8 28 .cfa: sp 0 + .ra: lr
STACK CFI 3dbc .cfa: sp 24 + .ra: .cfa -4 + ^
STACK CFI 3ddc .cfa: sp 4 +
STACK CFI INIT 3de0 4 .cfa: sp 0 + .ra: lr
STACK CFI INIT 3de4 398 .cfa: sp 0 + .ra: lr
STACK CFI 3de8 .cfa: sp 28 + .ra: .cfa -4 + ^ r4: .cfa -28 + ^ r5: .cfa -24 + ^ r6: .cfa -20 + ^ r7: .cfa -16 + ^ r8: .cfa -12 + ^ r9: .cfa -8 + ^
STACK CFI 3dec .cfa: sp 48 +
STACK CFI 4178 .cfa: sp 28 +
STACK CFI INIT 417c 40 .cfa: sp 0 + .ra: lr
STACK CFI 4180 .cfa: sp 24 + .ra: .cfa -4 + ^
STACK CFI 41b8 .cfa: sp 4 +
STACK CFI INIT 41bc 10 .cfa: sp 0 + .ra: lr
STACK CFI 41c0 .cfa: sp 8 + .ra: .cfa -4 + ^ r3: .cfa -8 + ^
STACK CFI INIT 41cc 1c .cfa: sp 0 + .ra: lr
STACK CFI 41d0 .cfa: sp 8 + .ra: .cfa -4 + ^ r3: .cfa -8 + ^
STACK CFI INIT 41e8 8 .cfa: sp 0 + .ra: lr
STACK CFI 41ec .cfa: sp 8 + .ra: .cfa -4 + ^ r3: .cfa -8 + ^
STACK CFI INIT 41f0 8 .cfa: sp 0 + .ra: lr
STACK CFI 41f4 .cfa: sp 8 + .ra: .cfa -4 + ^ r3: .cfa -8 + ^
STACK CFI INIT 41f8 18 .cfa: sp 0 + .ra: lr
STACK CFI INIT 4210 4 .cfa: sp 0 + .ra: lr
STACK CFI INIT 4214 4 .cfa: sp 0 + .ra: lr
STACK CFI INIT 4218 44 .cfa: sp 0 + .ra: lr
STACK CFI 421c .cfa: sp 24 + .ra: .cfa -4 + ^ r3: .cfa -24 + ^ r4: .cfa -20 + ^ r5: .cfa -16 + ^ r6: .cfa -12 + ^ r7: .cfa -8 + ^
STACK CFI 4258 .cfa: sp 0 + .ra: .ra r3: r3 r4: r4 r5: r5 r6: r6 r7: r7
STACK CFI INIT 425c 84 .cfa: sp 0 + .ra: lr
STACK CFI 4260 .cfa: sp 16 + .ra: .cfa -4 + ^ r4: .cfa -16 + ^ r5: .cfa -12 + ^ r6: .cfa -8 + ^
STACK CFI INIT 42e0 24 .cfa: sp 0 + .ra: lr
STACK CFI 42e4 .cfa: sp 8 + .ra: .cfa -4 + ^ r3: .cfa -8 + ^
STACK CFI 42f8 .cfa: sp 0 + .ra: .ra r3: r3
STACK CFI INIT 4304 24 .cfa: sp 0 + .ra: lr
STACK CFI 4308 .cfa: sp 8 + .ra: .cfa -4 + ^ r3: .cfa -8 + ^
STACK CFI 431c .cfa: sp 0 + .ra: .ra r3: r3
STACK CFI INIT 4328 20 .cfa: sp 0 + .ra: lr
STACK CFI INIT 4348 14 .cfa: sp 0 + .ra: lr
STACK CFI 434c .cfa: sp 8 + .ra: .cfa -4 + ^ r3: .cfa -8 + ^
STACK CFI INIT 435c 3c .cfa: sp 0 + .ra: lr
STACK CFI 4360 .cfa: sp 8 + .ra: .cfa -4 + ^ r3: .cfa -8 + ^
STACK CFI 4384 .cfa: sp 0 + .ra: .ra r3: r3
STACK CFI 4388 .cfa: sp 8 + .ra: .cfa -4 + ^ r3: .cfa -8 + ^
STACK CFI INIT 4398 13c .cfa: sp 0 + .ra: lr
STACK CFI 439c .cfa: sp 24 + .ra: .cfa -4 + ^ r4: .cfa -24 + ^ r5: .cfa -20 + ^ r6: .cfa -16 + ^ r7: .cfa -12 + ^ r8: .cfa -8 + ^
STACK CFI INIT 44d4 38 .cfa: sp 0 + .ra: lr
STACK CFI INIT 4638 17c .cfa: sp 0 + .ra: lr
STACK CFI 4644 .cfa: sp 48 + .ra: .cfa -4 + ^ r10: .cfa -12 + ^ r11: .cfa -8 + ^ r4: .cfa -36 + ^ r5: .cfa -32 + ^ r6: .cfa -28 + ^ r7: .cfa -24 + ^ r8: .cfa -20 + ^ r9: .cfa -16 + ^
STACK CFI 47b0 .cfa: sp 36 +
STACK CFI INIT 47b4 10c .cfa: sp 0 + .ra: lr
STACK CFI 47c0 .cfa: sp 40 + .ra: .cfa -4 + ^ r10: .cfa -12 + ^ r11: .cfa -8 + ^ r3: .cfa -40 + ^ r4: .cfa -36 + ^ r5: .cfa -32 + ^ r6: .cfa -28 + ^ r7: .cfa -24 + ^ r8: .cfa -20 + ^ r9: .cfa -16 + ^
